; Function Attrs: mustprogress nounwind uwtable
define hidden noundef i32 @_ZN16JvmtiThreadState15cur_stack_depthEv(ptr nocapture noundef nonnull align 8 dereferenceable(184) %0) local_unnamed_addr #0 align 2 {
  %2 = tail call align 8 ptr @llvm.threadlocal.address.p0(ptr align 8 @_ZN6Thread12_thr_currentE)
  %3 = load ptr, ptr %2, align 8
  %4 = load ptr, ptr %0, align 8
  %5 = getelementptr inbounds i8, ptr %4, i64 1504
  %6 = load volatile ptr, ptr %5, align 8
  %7 = icmp eq ptr %6, %3
  %8 = icmp eq ptr %4, %3
  %9 = or i1 %8, %7
  br i1 %9, label %12, label %10

10:                                               ; preds = %1
  %11 = load ptr, ptr @g_assert_poison, align 8
  store i8 88, ptr %11, align 1
  tail call void (ptr, i32, ptr, ptr, ...) @_Z15report_vm_errorPKciS0_S0_z(ptr noundef nonnull @.str, i32 noundef 854, ptr noundef nonnull @.str.8, ptr noundef nonnull @.str.9) #14
  unreachable

12:                                               ; preds = %1
  %13 = getelementptr inbounds i8, ptr %4, i64 1544
  %.in.i = load i32, ptr %13, align 4
  %.not4 = icmp eq i32 %.in.i, 0
  %14 = getelementptr inbounds i8, ptr %0, i64 72
  %15 = load i32, ptr %14, align 8
  %16 = icmp eq i32 %15, -99
  %or.cond = select i1 %.not4, i1 true, i1 %16
  br i1 %or.cond, label %17, label %19

17:                                               ; preds = %12
  %18 = tail call noundef i32 @_ZN16JvmtiThreadState12count_framesEv(ptr noundef nonnull align 8 dereferenceable(184) %0)
  store i32 %18, ptr %14, align 8
  br label %19

19:                                               ; preds = %12, %17
  %20 = phi i32 [ %15, %12 ], [ %18, %17 ]
  ret i32 %20
}